target datalayout = "e-m:e-p270:32:32-p271:32:32-p272:64:64-i64:64-i128:128-f80:128-n8:16:32:64-S128"
target triple = "x86_64-pc-linux-gnu"

%struct.IMXI2C = type { %struct.QOSGraphObject, %struct.I2CAdapter, i64 }
%struct.QOSGraphObject = type { ptr, ptr, ptr, ptr, ptr }
%struct.I2CAdapter = type { ptr, ptr, ptr }

@.str = private unnamed_addr constant [8 x i8] c"i2c-bus\00", align 1
@stderr = external global ptr, align 8
@.str.1 = private unnamed_addr constant [27 x i8] c"%s not present in imx-i2c\0A\00", align 1
@.str.2 = private unnamed_addr constant [37 x i8] c"../qemu/tests/qtest/libqos/i2c-imx.c\00", align 1
@__func__.imx_i2c_get_driver = private unnamed_addr constant [19 x i8] c"imx_i2c_get_driver\00", align 1

; Function Attrs: nounwind sspstrong uwtable
define internal ptr @imx_i2c_get_driver(ptr noundef %0, ptr noundef %1) #0 {
  %3 = alloca ptr, align 8
  %4 = alloca ptr, align 8
  %5 = alloca ptr, align 8
  %6 = alloca ptr, align 8
  %7 = alloca i32, align 4
  store ptr %0, ptr %4, align 8
  store ptr %1, ptr %5, align 8
  call void @llvm.lifetime.start.p0(i64 8, ptr %6) #5
  %8 = load ptr, ptr %4, align 8
  store ptr %8, ptr %6, align 8
  %9 = load ptr, ptr %5, align 8
  %10 = call i32 @g_strcmp0(ptr noundef %9, ptr noundef @.str)
  %11 = icmp ne i32 %10, 0
  br i1 %11, label %15, label %12

12:                                               ; preds = %2
  %13 = load ptr, ptr %6, align 8
  %14 = getelementptr inbounds nuw %struct.IMXI2C, ptr %13, i32 0, i32 1
  store ptr %14, ptr %3, align 8
  store i32 1, ptr %7, align 4
  br label %22

15:                                               ; preds = %2
  %16 = load ptr, ptr @stderr, align 8
  %17 = load ptr, ptr %5, align 8
  %18 = call i32 (ptr, i32, ptr, ...) @__fprintf_chk(ptr noundef %16, i32 noundef 1, ptr noundef @.str.1, ptr noundef %17)
  br label %19

19:                                               ; preds = %15
  call void @g_assertion_message_expr(ptr noundef null, ptr noundef @.str.2, i32 noundef 196, ptr noundef @__func__.imx_i2c_get_driver, ptr noundef null) #6
  unreachable

20:                                               ; No predecessors!
  br label %21

21:                                               ; preds = %20
  store i32 0, ptr %7, align 4
  br label %22

22:                                               ; preds = %21, %12
  call void @llvm.lifetime.end.p0(i64 8, ptr %6) #5
  %23 = load i32, ptr %7, align 4
  switch i32 %23, label %26 [
    i32 0, label %24
    i32 1, label %24
  ]

24:                                               ; preds = %22, %22
  %25 = load ptr, ptr %3, align 8
  ret ptr %25

26:                                               ; preds = %22
  unreachable
}