; Function Attrs: nounwind sspstrong uwtable
define internal nonnull ptr @imx_i2c_get_driver(ptr noundef readnone captures(ret: address, provenance) %0, ptr noundef %1) #1 {
  %3 = tail call i32 @g_strcmp0(ptr noundef %1, ptr noundef nonnull @.str) #4
  %.not = icmp eq i32 %3, 0
  br i1 %.not, label %4, label %6

4:                                                ; preds = %2
  %5 = getelementptr inbounds nuw i8, ptr %0, i64 40
  ret ptr %5

6:                                                ; preds = %2
  %7 = load ptr, ptr @stderr, align 8
  %8 = tail call i32 (ptr, i32, ptr, ...) @__fprintf_chk(ptr noundef %7, i32 noundef 1, ptr noundef nonnull @.str.1, ptr noundef %1) #4
  tail call void @g_assertion_message_expr(ptr noundef null, ptr noundef nonnull @.str.2, i32 noundef 196, ptr noundef nonnull @__func__.imx_i2c_get_driver, ptr noundef null) #5
  unreachable
}